ccopy_reg
_reconstructor
p1
(cargparse
Namespace
p2
c__builtin__
object
p3
NtRp4
(dp5
S'num_epochs'
p6
I50
sS'vocab_size'
p7
I79
sS'rnn_size'
p8
I128
sS'data_dir'
p9
S'data'
p10
sS'learning_rate'
p11
F0.002
sS'save_dir'
p12
S'save'
p13
sS'seq_length'
p14
I50
sS'decay_rate'
p15
F0.96999999999999997
sS'batch_size'
p16
I50
sS'num_layers'
p17
I2
sb.